	.file	"test4_arith.c"
	.text
	.globl	sum
	.type	sum, @function
sum:
.LFB2:
	.cfi_startproc
	pushl	%ebp
	.cfi_def_cfa_offset 8
	.cfi_offset 5, -8
	movl	%esp, %ebp
	.cfi_def_cfa_register 5
	movl	12(%ebp), %eax
	movl	8(%ebp), %edx
	addl	%edx, %eax
	popl	%ebp
	.cfi_restore 5
	.cfi_def_cfa 4, 4
	ret
	.cfi_endproc
.LFE2:
	.size	sum, .-sum
	.globl	diff
	.type	diff, @function
diff:
.LFB3:
	.cfi_startproc
	pushl	%ebp
	.cfi_def_cfa_offset 8
	.cfi_offset 5, -8
	movl	%esp, %ebp
	.cfi_def_cfa_register 5
	movl	12(%ebp), %eax
	movl	8(%ebp), %edx
	subl	%eax, %edx
	movl	%edx, %eax
	popl	%ebp
	.cfi_restore 5
	.cfi_def_cfa 4, 4
	ret
	.cfi_endproc
.LFE3:
	.size	diff, .-diff
	.globl	pro
	.type	pro, @function
pro:
.LFB4:
	.cfi_startproc
	pushl	%ebp
	.cfi_def_cfa_offset 8
	.cfi_offset 5, -8
	movl	%esp, %ebp
	.cfi_def_cfa_register 5
	movl	8(%ebp), %eax
	imull	12(%ebp), %eax
	popl	%ebp
	.cfi_restore 5
	.cfi_def_cfa 4, 4
	ret
	.cfi_endproc
.LFE4:
	.size	pro, .-pro
	.globl	quo
	.type	quo, @function
quo:
.LFB5:
	.cfi_startproc
	pushl	%ebp
	.cfi_def_cfa_offset 8
	.cfi_offset 5, -8
	movl	%esp, %ebp
	.cfi_def_cfa_register 5
	movl	8(%ebp), %eax
	cltd
	idivl	12(%ebp)
	popl	%ebp
	.cfi_restore 5
	.cfi_def_cfa 4, 4
	ret
	.cfi_endproc
.LFE5:
	.size	quo, .-quo
	.globl	rem
	.type	rem, @function
rem:
.LFB6:
	.cfi_startproc
	pushl	%ebp
	.cfi_def_cfa_offset 8
	.cfi_offset 5, -8
	movl	%esp, %ebp
	.cfi_def_cfa_register 5
	movl	8(%ebp), %eax
	cltd
	idivl	12(%ebp)
	movl	%edx, %eax
	popl	%ebp
	.cfi_restore 5
	.cfi_def_cfa 4, 4
	ret
	.cfi_endproc
.LFE6:
	.size	rem, .-rem
	.section	.rodata
.LC0:
	.string	"sum        (%d, %d) =  %d\n"
.LC1:
	.string	"Difference (%d, %d) =  %d\n"
.LC2:
	.string	"Product    (%d, %d) =  %d\n"
.LC3:
	.string	"Quotient   (%d, %d) =  %d\n"
.LC4:
	.string	"Remainder  (%d, %d) =  %d\n"
	.text
	.globl	disp
	.type	disp, @function
disp:
.LFB7:
	.cfi_startproc
	pushl	%ebp
	.cfi_def_cfa_offset 8
	.cfi_offset 5, -8
	movl	%esp, %ebp
	.cfi_def_cfa_register 5
	subl	$24, %esp
	movl	16(%ebp), %eax
	movl	%eax, 12(%esp)
	movl	12(%ebp), %eax
	movl	%eax, 8(%esp)
	movl	8(%ebp), %eax
	movl	%eax, 4(%esp)
	movl	$.LC0, (%esp)
	call	printf
	movl	20(%ebp), %eax
	movl	%eax, 12(%esp)
	movl	12(%ebp), %eax
	movl	%eax, 8(%esp)
	movl	8(%ebp), %eax
	movl	%eax, 4(%esp)
	movl	$.LC1, (%esp)
	call	printf
	movl	24(%ebp), %eax
	movl	%eax, 12(%esp)
	movl	12(%ebp), %eax
	movl	%eax, 8(%esp)
	movl	8(%ebp), %eax
	movl	%eax, 4(%esp)
	movl	$.LC2, (%esp)
	call	printf
	movl	28(%ebp), %eax
	movl	%eax, 12(%esp)
	movl	12(%ebp), %eax
	movl	%eax, 8(%esp)
	movl	8(%ebp), %eax
	movl	%eax, 4(%esp)
	movl	$.LC3, (%esp)
	call	printf
	movl	32(%ebp), %eax
	movl	%eax, 12(%esp)
	movl	12(%ebp), %eax
	movl	%eax, 8(%esp)
	movl	8(%ebp), %eax
	movl	%eax, 4(%esp)
	movl	$.LC4, (%esp)
	call	printf
	leave
	.cfi_restore 5
	.cfi_def_cfa 4, 4
	ret
	.cfi_endproc
.LFE7:
	.size	disp, .-disp
	.globl	main
	.type	main, @function
main:
.LFB8:
	.cfi_startproc
	pushl	%ebp
	.cfi_def_cfa_offset 8
	.cfi_offset 5, -8
	movl	%esp, %ebp
	.cfi_def_cfa_register 5
	andl	$-16, %esp
	subl	$64, %esp
	movl	$10, 36(%esp)
	movl	$3, 40(%esp)
	movl	40(%esp), %eax
	movl	%eax, 4(%esp)
	movl	36(%esp), %eax
	movl	%eax, (%esp)
	call	sum
	movl	%eax, 44(%esp)
	movl	40(%esp), %eax
	movl	%eax, 4(%esp)
	movl	36(%esp), %eax
	movl	%eax, (%esp)
	call	diff
	movl	%eax, 48(%esp)
	movl	40(%esp), %eax
	movl	%eax, 4(%esp)
	movl	36(%esp), %eax
	movl	%eax, (%esp)
	call	pro
	movl	%eax, 52(%esp)
	movl	40(%esp), %eax
	movl	%eax, 4(%esp)
	movl	36(%esp), %eax
	movl	%eax, (%esp)
	call	quo
	movl	%eax, 56(%esp)
	movl	40(%esp), %eax
	movl	%eax, 4(%esp)
	movl	36(%esp), %eax
	movl	%eax, (%esp)
	call	rem
	movl	%eax, 60(%esp)
	movl	60(%esp), %eax
	movl	%eax, 24(%esp)
	movl	56(%esp), %eax
	movl	%eax, 20(%esp)
	movl	52(%esp), %eax
	movl	%eax, 16(%esp)
	movl	48(%esp), %eax
	movl	%eax, 12(%esp)
	movl	44(%esp), %eax
	movl	%eax, 8(%esp)
	movl	40(%esp), %eax
	movl	%eax, 4(%esp)
	movl	36(%esp), %eax
	movl	%eax, (%esp)
	call	disp
	leave
	.cfi_restore 5
	.cfi_def_cfa 4, 4
	ret
	.cfi_endproc
.LFE8:
	.size	main, .-main
	.ident	"GCC: (Ubuntu/Linaro 4.8.1-10ubuntu9) 4.8.1"
	.section	.note.GNU-stack,"",@progbits
